GAS LISTING /tmp/ccZgKeJv.s 			page 1


   1              		.file	"main.cpp"
   2              		.option pic
   3              		.option norelax
   4              		.text
   5              	.Ltext0:
   6              		.align	2
   7              		.globl	main
   9              	main:
  10              	.LFB0:
  11              		.file 1 "src/main.cpp"
   1:src/main.cpp  **** #include "../lib/console.h"
   2:src/main.cpp  **** #include "C++_API/syscall_cpp.h"
   3:src/main.cpp  **** 
   4:src/main.cpp  **** extern "C" void setTrap();
   5:src/main.cpp  **** 
   6:src/main.cpp  **** int main()
   7:src/main.cpp  **** {
  12              		.loc 1 7 1
  13              		.cfi_startproc
  14 0000 130101FE 		addi	sp,sp,-32
  15              		.cfi_def_cfa_offset 32
  16 0004 233C1100 		sd	ra,24(sp)
  17 0008 23388100 		sd	s0,16(sp)
  18 000c 23349100 		sd	s1,8(sp)
  19              		.cfi_offset 1, -8
  20              		.cfi_offset 8, -16
  21              		.cfi_offset 9, -24
  22 0010 13040102 		addi	s0,sp,32
  23              		.cfi_def_cfa 8, 0
   8:src/main.cpp  ****     setTrap();
  24              		.loc 1 8 5
  25              		.loc 1 8 12 is_stmt 0
  26 0014 97000000 		call	setTrap@plt
  26      E7800000 
  27              	.LVL0:
   9:src/main.cpp  **** 
  10:src/main.cpp  ****     char* testAlloc = new char;
  28              		.loc 1 10 5 is_stmt 1
  29              		.loc 1 10 27 is_stmt 0
  30 001c 13051000 		li	a0,1
  31 0020 97000000 		call	_Znwm@plt
  31      E7800000 
  32              	.LVL1:
  33 0028 93040500 		mv	s1,a0
  34              	.LVL2:
  11:src/main.cpp  ****     *testAlloc = 'a';
  35              		.loc 1 11 5 is_stmt 1
  36              		.loc 1 11 16 is_stmt 0
  37 002c 93071006 		li	a5,97
  38 0030 2300F500 		sb	a5,0(a0)
  12:src/main.cpp  **** 
  13:src/main.cpp  ****     __putc(*testAlloc);
  39              		.loc 1 13 5 is_stmt 1
  40              		.loc 1 13 11 is_stmt 0
  41 0034 13051006 		li	a0,97
  42 0038 97000000 		call	__putc@plt
  42      E7800000 
GAS LISTING /tmp/ccZgKeJv.s 			page 2


  43              	.LVL3:
  14:src/main.cpp  **** 
  15:src/main.cpp  ****     delete testAlloc;
  44              		.loc 1 15 5 is_stmt 1
  45              		.loc 1 15 21 is_stmt 0
  46 0040 63880400 		beqz	s1,.L2
  47              		.loc 1 15 12 discriminator 1
  48 0044 13850400 		mv	a0,s1
  49 0048 97000000 		call	_ZdlPv@plt
  49      E7800000 
  50              	.LVL4:
  51              	.L2:
  16:src/main.cpp  **** 
  17:src/main.cpp  ****     return 0;
  52              		.loc 1 17 5 is_stmt 1
  18:src/main.cpp  **** }...
  53              		.loc 1 18 1 is_stmt 0
  54 0050 13050000 		li	a0,0
  55 0054 83308101 		ld	ra,24(sp)
  56              		.cfi_restore 1
  57 0058 03340101 		ld	s0,16(sp)
  58              		.cfi_restore 8
  59              		.cfi_def_cfa 2, 32
  60 005c 83348100 		ld	s1,8(sp)
  61              		.cfi_restore 9
  62              	.LVL5:
  63 0060 13010102 		addi	sp,sp,32
  64              		.cfi_def_cfa_offset 0
  65 0064 67800000 		jr	ra
  66              		.cfi_endproc
  67              	.LFE0:
  69              	.Letext0:
  70              		.file 2 "src/C++_API/../C_API/../../lib/hw.h"
  71              		.file 3 "src/C++_API/syscall_cpp.h"
  72              		.file 4 "src/../lib/console.h"
GAS LISTING /tmp/ccZgKeJv.s 			page 3


DEFINED SYMBOLS
                            *ABS*:0000000000000000 main.cpp
     /tmp/ccZgKeJv.s:9      .text:0000000000000000 main
     /tmp/ccZgKeJv.s:13     .text:0000000000000000 .L0 
     /tmp/ccZgKeJv.s:14     .text:0000000000000000 .L0 
     /tmp/ccZgKeJv.s:15     .text:0000000000000004 .L0 
     /tmp/ccZgKeJv.s:19     .text:0000000000000010 .L0 
     /tmp/ccZgKeJv.s:20     .text:0000000000000010 .L0 
     /tmp/ccZgKeJv.s:21     .text:0000000000000010 .L0 
     /tmp/ccZgKeJv.s:23     .text:0000000000000014 .L0 
     /tmp/ccZgKeJv.s:25     .text:0000000000000014 .L0 
     /tmp/ccZgKeJv.s:26     .text:0000000000000014 .L0 
     /tmp/ccZgKeJv.s:29     .text:000000000000001c .L0 
     /tmp/ccZgKeJv.s:30     .text:000000000000001c .L0 
     /tmp/ccZgKeJv.s:36     .text:000000000000002c .L0 
     /tmp/ccZgKeJv.s:37     .text:000000000000002c .L0 
     /tmp/ccZgKeJv.s:40     .text:0000000000000034 .L0 
     /tmp/ccZgKeJv.s:41     .text:0000000000000034 .L0 
     /tmp/ccZgKeJv.s:45     .text:0000000000000040 .L0 
     /tmp/ccZgKeJv.s:46     .text:0000000000000040 .L0 
     /tmp/ccZgKeJv.s:48     .text:0000000000000044 .L0 
     /tmp/ccZgKeJv.s:53     .text:0000000000000050 .L0 
     /tmp/ccZgKeJv.s:54     .text:0000000000000050 .L0 
     /tmp/ccZgKeJv.s:56     .text:0000000000000058 .L0 
     /tmp/ccZgKeJv.s:58     .text:000000000000005c .L0 
     /tmp/ccZgKeJv.s:59     .text:000000000000005c .L0 
     /tmp/ccZgKeJv.s:61     .text:0000000000000060 .L0 
     /tmp/ccZgKeJv.s:64     .text:0000000000000064 .L0 
     /tmp/ccZgKeJv.s:66     .text:0000000000000068 .L0 
     /tmp/ccZgKeJv.s:73     .text:0000000000000068 .L0 
     /tmp/ccZgKeJv.s:51     .text:0000000000000050 .L2
     /tmp/ccZgKeJv.s:285    .debug_abbrev:0000000000000000 .Ldebug_abbrev0
     /tmp/ccZgKeJv.s:582    .debug_str:0000000000000122 .LASF25
     /tmp/ccZgKeJv.s:584    .debug_str:00000000000001e6 .LASF26
     /tmp/ccZgKeJv.s:560    .debug_str:0000000000000074 .LASF27
     /tmp/ccZgKeJv.s:5      .text:0000000000000000 .Ltext0
     /tmp/ccZgKeJv.s:69     .text:0000000000000068 .Letext0
     /tmp/ccZgKeJv.s:540    .debug_line:0000000000000000 .Ldebug_line0
     /tmp/ccZgKeJv.s:542    .debug_str:0000000000000000 .LASF0
     /tmp/ccZgKeJv.s:580    .debug_str:000000000000010f .LASF1
     /tmp/ccZgKeJv.s:566    .debug_str:00000000000000ae .LASF2
     /tmp/ccZgKeJv.s:558    .debug_str:000000000000006d .LASF4
     /tmp/ccZgKeJv.s:554    .debug_str:0000000000000048 .LASF3
     /tmp/ccZgKeJv.s:548    .debug_str:000000000000002a .LASF5
     /tmp/ccZgKeJv.s:556    .debug_str:000000000000005a .LASF6
     /tmp/ccZgKeJv.s:578    .debug_str:00000000000000fc .LASF7
     /tmp/ccZgKeJv.s:590    .debug_str:0000000000000208 .LASF8
     /tmp/ccZgKeJv.s:544    .debug_str:000000000000000d .LASF9
     /tmp/ccZgKeJv.s:546    .debug_str:000000000000001b .LASF10
     /tmp/ccZgKeJv.s:586    .debug_str:00000000000001f3 .LASF11
     /tmp/ccZgKeJv.s:550    .debug_str:0000000000000031 .LASF12
     /tmp/ccZgKeJv.s:594    .debug_str:000000000000021d .LASF13
     /tmp/ccZgKeJv.s:564    .debug_str:00000000000000a2 .LASF14
     /tmp/ccZgKeJv.s:576    .debug_str:00000000000000e6 .LASF15
     /tmp/ccZgKeJv.s:572    .debug_str:00000000000000c8 .LASF16
     /tmp/ccZgKeJv.s:568    .debug_str:00000000000000bc .LASF28
     /tmp/ccZgKeJv.s:10     .text:0000000000000000 .LFB0
GAS LISTING /tmp/ccZgKeJv.s 			page 4


     /tmp/ccZgKeJv.s:67     .text:0000000000000068 .LFE0
     /tmp/ccZgKeJv.s:598    .debug_str:000000000000023a .LASF17
     /tmp/ccZgKeJv.s:520    .debug_loc:0000000000000000 .LLST0
     /tmp/ccZgKeJv.s:27     .text:000000000000001c .LVL0
     /tmp/ccZgKeJv.s:32     .text:0000000000000028 .LVL1
     /tmp/ccZgKeJv.s:43     .text:0000000000000040 .LVL3
     /tmp/ccZgKeJv.s:50     .text:0000000000000050 .LVL4
     /tmp/ccZgKeJv.s:592    .debug_str:0000000000000218 .LASF18
     /tmp/ccZgKeJv.s:574    .debug_str:00000000000000de .LASF19
     /tmp/ccZgKeJv.s:588    .debug_str:0000000000000202 .LASF20
     /tmp/ccZgKeJv.s:596    .debug_str:000000000000022d .LASF21
     /tmp/ccZgKeJv.s:570    .debug_str:00000000000000c1 .LASF22
     /tmp/ccZgKeJv.s:552    .debug_str:0000000000000041 .LASF23
     /tmp/ccZgKeJv.s:562    .debug_str:0000000000000092 .LASF24
     /tmp/ccZgKeJv.s:34     .text:000000000000002c .LVL2
     /tmp/ccZgKeJv.s:62     .text:0000000000000060 .LVL5
     /tmp/ccZgKeJv.s:74     .debug_info:0000000000000000 .Ldebug_info0

UNDEFINED SYMBOLS
setTrap
_Znwm
__putc
_ZdlPv
