GAS LISTING /tmp/cc8HcZwd.s 			page 1


   1              		.file	"main.c"
   2              		.option nopic
   3              		.option norelax
   4              		.text
   5              	.Ltext0:
   6              		.cfi_sections	.debug_frame
   7              		.align	2
   8              		.globl	main
  10              	main:
  11              	.LFB0:
  12              		.file 1 "src/main.c"
   1:src/main.c    **** #include "../lib/console.h"
   2:src/main.c    **** #include "C_API/syscall_c.h"
   3:src/main.c    **** 
   4:src/main.c    **** void main()
   5:src/main.c    **** {
  13              		.loc 1 5 1
  14              		.cfi_startproc
  15 0000 130101FE 		addi	sp,sp,-32
  16              		.cfi_def_cfa_offset 32
  17 0004 233C1100 		sd	ra,24(sp)
  18 0008 23388100 		sd	s0,16(sp)
  19 000c 23349100 		sd	s1,8(sp)
  20              		.cfi_offset 1, -8
  21              		.cfi_offset 8, -16
  22              		.cfi_offset 9, -24
  23 0010 13040102 		addi	s0,sp,32
  24              		.cfi_def_cfa 8, 0
   6:src/main.c    ****     char* testChar = __mem_alloc(sizeof(char));
  25              		.loc 1 6 5
  26              		.loc 1 6 22 is_stmt 0
  27 0014 13051000 		li	a0,1
  28 0018 97000000 		call	__mem_alloc
  28      E7800000 
  29              	.LVL0:
  30 0020 93040500 		mv	s1,a0
  31              	.LVL1:
   7:src/main.c    ****     *testChar = 'a';
  32              		.loc 1 7 5 is_stmt 1
  33              		.loc 1 7 15 is_stmt 0
  34 0024 93071006 		li	a5,97
  35 0028 2300F500 		sb	a5,0(a0)
   8:src/main.c    ****     __putc(*testChar);
  36              		.loc 1 8 5 is_stmt 1
  37 002c 13051006 		li	a0,97
  38 0030 97000000 		call	__putc
  38      E7800000 
  39              	.LVL2:
   9:src/main.c    ****     __mem_free(testChar);
  40              		.loc 1 9 5
  41 0038 13850400 		mv	a0,s1
  42 003c 97000000 		call	__mem_free
  42      E7800000 
  43              	.LVL3:
  10:src/main.c    **** }...
  44              		.loc 1 10 1 is_stmt 0
  45 0044 83308101 		ld	ra,24(sp)
GAS LISTING /tmp/cc8HcZwd.s 			page 2


  46              		.cfi_restore 1
  47 0048 03340101 		ld	s0,16(sp)
  48              		.cfi_restore 8
  49              		.cfi_def_cfa 2, 32
  50 004c 83348100 		ld	s1,8(sp)
  51              		.cfi_restore 9
  52              	.LVL4:
  53 0050 13010102 		addi	sp,sp,32
  54              		.cfi_def_cfa_offset 0
  55 0054 67800000 		jr	ra
  56              		.cfi_endproc
  57              	.LFE0:
  59              	.Letext0:
  60              		.file 2 "src/C_API/../../lib/hw.h"
  61              		.file 3 "src/C_API/syscall_c.h"
  62              		.file 4 "src/../lib/console.h"
GAS LISTING /tmp/cc8HcZwd.s 			page 3

